target datalayout = "e-m:e-p270:32:32-p271:32:32-p272:64:64-i64:64-i128:128-f80:128-n8:16:32:64-S128"
target triple = "x86_64-pc-linux-gnu"

; Function Attrs: nounwind uwtable
define internal i64 @always_retry_ctrl(ptr noundef %0, i32 noundef %1, i64 noundef %2, ptr noundef %3) #0 {
  %5 = alloca ptr, align 8
  %6 = alloca i32, align 4
  %7 = alloca i64, align 8
  %8 = alloca ptr, align 8
  %9 = alloca i64, align 8
  store ptr %0, ptr %5, align 8, !tbaa !9
  store i32 %1, ptr %6, align 4, !tbaa !13
  store i64 %2, ptr %7, align 8, !tbaa !15
  store ptr %3, ptr %8, align 8, !tbaa !17
  call void @llvm.lifetime.start.p0(i64 8, ptr %9) #10
  store i64 1, ptr %9, align 8, !tbaa !15
  %10 = load i32, ptr %6, align 4, !tbaa !13
  switch i32 %10, label %14 [
    i32 11, label %11
    i32 2, label %13
    i32 1, label %13
    i32 12, label %13
    i32 6, label %13
    i32 7, label %13
  ]

11:                                               ; preds = %4
  %12 = load ptr, ptr %5, align 8, !tbaa !9
  call void @BIO_set_flags(ptr noundef %12, i32 noundef 10)
  br label %13

13:                                               ; preds = %4, %4, %4, %4, %4, %11
  br label %14

14:                                               ; preds = %4, %13
  store i64 0, ptr %9, align 8, !tbaa !15
  br label %15

15:                                               ; preds = %14
  %16 = load i64, ptr %9, align 8, !tbaa !15
  call void @llvm.lifetime.end.p0(i64 8, ptr %9) #10
  ret i64 %16
}