; Function Attrs: nounwind uwtable
define internal noundef i64 @always_retry_ctrl(ptr noundef %0, i32 noundef %1, i64 %2, ptr readnone captures(none) %3) #0 {
  %cond = icmp eq i32 %1, 11
  br i1 %cond, label %5, label %6

5:                                                ; preds = %4
  tail call void @BIO_set_flags(ptr noundef %0, i32 noundef 10) #14
  br label %6

6:                                                ; preds = %4, %5
  ret i64 0
}